; Function Attrs: mustprogress nofree norecurse nosync nounwind willreturn memory(argmem: write) uwtable
define range(i32 0, 2) i32 @ROCKSDB_XXH3_64bits_reset_withSecretandSeed(ptr noundef writeonly captures(none) %0, ptr noundef captures(none) %1, i64 noundef %2, i64 noundef %3) local_unnamed_addr #11 {
  %5 = icmp eq ptr %0, null
  %6 = icmp eq ptr %1, null
  %or.cond = or i1 %5, %6
  %7 = icmp ult i64 %2, 136
  %or.cond11 = or i1 %or.cond, %7
  br i1 %or.cond11, label %24, label %8

8:                                                ; preds = %4
  %9 = getelementptr inbounds nuw i8, ptr %0, i64 512
  tail call void @llvm.memset.p0.i64(ptr noundef nonnull align 1 dereferenceable(24) %9, i8 0, i64 24, i1 false)
  store i64 3266489917, ptr %0, align 64, !tbaa !19
  %10 = getelementptr inbounds nuw i8, ptr %0, i64 8
  store i64 -7046029288634856825, ptr %10, align 8, !tbaa !19
  %11 = getelementptr inbounds nuw i8, ptr %0, i64 16
  store i64 -4417276706812531889, ptr %11, align 16, !tbaa !19
  %12 = getelementptr inbounds nuw i8, ptr %0, i64 24
  store i64 1609587929392839161, ptr %12, align 8, !tbaa !19
  %13 = getelementptr inbounds nuw i8, ptr %0, i64 32
  store i64 -8796714831421723037, ptr %13, align 32, !tbaa !19
  %14 = getelementptr inbounds nuw i8, ptr %0, i64 40
  store i64 2246822519, ptr %14, align 8, !tbaa !19
  %15 = getelementptr inbounds nuw i8, ptr %0, i64 48
  store i64 2870177450012600261, ptr %15, align 16, !tbaa !19
  %16 = getelementptr inbounds nuw i8, ptr %0, i64 56
  store i64 2654435761, ptr %16, align 8, !tbaa !19
  %17 = getelementptr inbounds nuw i8, ptr %0, i64 552
  store i64 %3, ptr %17, align 8, !tbaa !33
  %18 = getelementptr inbounds nuw i8, ptr %0, i64 516
  %19 = getelementptr inbounds nuw i8, ptr %0, i64 568
  store ptr %1, ptr %19, align 8, !tbaa !37
  %20 = add i64 %2, -64
  %21 = getelementptr inbounds nuw i8, ptr %0, i64 544
  store i64 %20, ptr %21, align 32, !tbaa !38
  %22 = lshr i64 %20, 3
  %23 = getelementptr inbounds nuw i8, ptr %0, i64 536
  store i64 %22, ptr %23, align 8, !tbaa !39
  store i32 1, ptr %18, align 4, !tbaa !40
  br label %24

24:                                               ; preds = %4, %8
  %.0 = phi i32 [ 0, %8 ], [ 1, %4 ]
  ret i32 %.0
}